(lp0
(dp1
S'log-file'
p2
S'/var/log/shadowsocks.log'
p3
sS'localPort'
p4
I1080
sS'local_port'
p5
I1080
sS'shareOverLan'
p6
I01
sS'workers'
p7
I1
sS'fast_open'
p8
I00
sS'server'
p9
S'jp01-54.ssv7.net'
p10
sS'port_password'
p11
NsS'server_port'
p12
I24052
sS'timeout'
p13
I300
sS'remarks'
p14
S'jp01'
p15
sS'local_address'
p16
S'127.0.0.1'
p17
sS'pid-file'
p18
S'/var/run/shadowsocks.pid'
p19
sS'password'
p20
S'USKjZVQyVNeS'
p21
sS'method'
p22
S'aes-256-cfb'
p23
sS'verbose'
p24
I00
sa(dp25
g2
g3
sg4
I1080
sg5
I1080
sg6
I01
sg7
I1
sg8
I00
sg9
S'jp06-54.ssv7.net'
p26
sg11
Nsg12
I24052
sg13
I300
sg14
S'jp06'
p27
sg16
g17
sg18
g19
sg20
g21
sg22
g23
sg24
I00
sa(dp28
g2
g3
sg4
I1080
sg5
I1080
sg6
I01
sg7
I1
sg8
I00
sg9
S'sg01-54.ssv7.net'
p29
sg11
Nsg12
I24052
sg13
I300
sg14
S'sg01'
p30
sg16
g17
sg18
g19
sg20
g21
sg22
g23
sg24
I00
sa(dp31
g2
g3
sg4
I1080
sg5
I1080
sg6
I01
sg7
I1
sg8
I00
sg9
S'sg02-54.ssv7.net'
p32
sg11
Nsg12
I24052
sg13
I300
sg14
S'sg02'
p33
sg16
g17
sg18
g19
sg20
g21
sg22
g23
sg24
I00
sa(dp34
g2
g3
sg4
I1080
sg5
I1080
sg6
I01
sg7
I1
sg8
I00
sg9
S'hk02-54.ssv7.net'
p35
sg11
Nsg12
I24052
sg13
I300
sg14
S'hk02'
p36
sg16
g17
sg18
g19
sg20
g21
sg22
g23
sg24
I00
sa(dp37
g2
g3
sg4
I1080
sg5
I1080
sg6
I01
sg7
I1
sg8
I00
sg9
S'us01-54.ssv7.net'
p38
sg11
Nsg12
I24052
sg13
I300
sg14
S'us01'
p39
sg16
g17
sg18
g19
sg20
g21
sg22
g23
sg24
I00
sa(dp40
g2
g3
sg4
I1080
sg5
I1080
sg6
I01
sg7
I1
sg8
I00
sg9
S'us02-54.ssv7.net'
p41
sg11
Nsg12
I24052
sg13
I300
sg14
S'us02'
p42
sg16
g17
sg18
g19
sg20
g21
sg22
g23
sg24
I00
sa.